target datalayout = "e-m:e-p270:32:32-p271:32:32-p272:64:64-i64:64-i128:128-f80:128-n8:16:32:64-S128"
target triple = "x86_64-pc-linux-gnu"

%"class.std::basic_ostream" = type { ptr, %"class.std::basic_ios" }
%"class.std::basic_ios" = type { %"class.std::ios_base", ptr, i8, i8, ptr, ptr, ptr, ptr }
%"class.std::ios_base" = type { ptr, i64, i64, i32, i32, i32, ptr, %"struct.std::ios_base::_Words", [8 x %"struct.std::ios_base::_Words"], i32, ptr, %"class.std::locale" }
%"struct.std::ios_base::_Words" = type { ptr, i64 }
%"class.std::locale" = type { ptr }
%"class.pxrInternal_v0_24__pxrReserved__::TfErrorMark" = type { i64 }
%"class.pxrInternal_v0_24__pxrReserved__::TfDiagnosticMgr" = type <{ ptr, %"class.pxrInternal_v0_24__pxrReserved__::TfWeakBase", %"class.tbb::detail::d1::enumerable_thread_specific", %"class.std::vector.418", %"class.tbb::detail::d1::spin_rw_mutex", %"struct.std::atomic.225", %"class.tbb::detail::d1::enumerable_thread_specific.423", %"class.tbb::detail::d1::enumerable_thread_specific.432", %"class.tbb::detail::d1::enumerable_thread_specific.441", i8, [7 x i8] }>
%"class.pxrInternal_v0_24__pxrReserved__::TfWeakBase" = type { %"struct.std::atomic.410" }
%"struct.std::atomic.410" = type { %"struct.std::__atomic_base.411" }
%"struct.std::__atomic_base.411" = type { ptr }
%"class.tbb::detail::d1::enumerable_thread_specific" = type { %"class.tbb::detail::d1::ets_base", ptr, %"class.tbb::detail::d1::concurrent_vector" }
%"class.tbb::detail::d1::ets_base" = type { ptr, %"struct.std::atomic.412", %"struct.std::atomic.225" }
%"struct.std::atomic.412" = type { %"struct.std::__atomic_base.413" }
%"struct.std::__atomic_base.413" = type { ptr }
%"class.tbb::detail::d1::concurrent_vector" = type { %"class.tbb::detail::d1::segment_table.base", [7 x i8] }
%"class.tbb::detail::d1::segment_table.base" = type <{ ptr, [8 x i8], %"struct.std::atomic.414", [3 x %"struct.std::atomic.416"], %"struct.std::atomic.225", %"struct.std::atomic.225", %"struct.std::atomic.315" }>
%"struct.std::atomic.414" = type { %"struct.std::__atomic_base.415" }
%"struct.std::__atomic_base.415" = type { ptr }
%"struct.std::atomic.416" = type { %"struct.std::__atomic_base.417" }
%"struct.std::__atomic_base.417" = type { ptr }
%"struct.std::atomic.315" = type { %"struct.std::__atomic_base.316" }
%"struct.std::__atomic_base.316" = type { i8 }
%"class.std::vector.418" = type { %"struct.std::_Vector_base.419" }
%"struct.std::_Vector_base.419" = type { %"struct.std::_Vector_base<pxrInternal_v0_24__pxrReserved__::TfDiagnosticMgr::Delegate *, std::allocator<pxrInternal_v0_24__pxrReserved__::TfDiagnosticMgr::Delegate *>>::_Vector_impl" }
%"struct.std::_Vector_base<pxrInternal_v0_24__pxrReserved__::TfDiagnosticMgr::Delegate *, std::allocator<pxrInternal_v0_24__pxrReserved__::TfDiagnosticMgr::Delegate *>>::_Vector_impl" = type { %"struct.std::_Vector_base<pxrInternal_v0_24__pxrReserved__::TfDiagnosticMgr::Delegate *, std::allocator<pxrInternal_v0_24__pxrReserved__::TfDiagnosticMgr::Delegate *>>::_Vector_impl_data" }
%"struct.std::_Vector_base<pxrInternal_v0_24__pxrReserved__::TfDiagnosticMgr::Delegate *, std::allocator<pxrInternal_v0_24__pxrReserved__::TfDiagnosticMgr::Delegate *>>::_Vector_impl_data" = type { ptr, ptr, ptr }
%"class.tbb::detail::d1::spin_rw_mutex" = type { %"struct.std::atomic.227" }
%"struct.std::atomic.227" = type { %"struct.std::__atomic_base.228" }
%"struct.std::__atomic_base.228" = type { i64 }
%"struct.std::atomic.225" = type { %"struct.std::__atomic_base.226" }
%"struct.std::__atomic_base.226" = type { i64 }
%"class.tbb::detail::d1::enumerable_thread_specific.423" = type { %"class.tbb::detail::d1::ets_base", ptr, %"class.tbb::detail::d1::concurrent_vector.424" }
%"class.tbb::detail::d1::concurrent_vector.424" = type { %"class.tbb::detail::d1::segment_table.base.430", [7 x i8] }
%"class.tbb::detail::d1::segment_table.base.430" = type <{ ptr, [8 x i8], %"struct.std::atomic.426", [3 x %"struct.std::atomic.428"], %"struct.std::atomic.225", %"struct.std::atomic.225", %"struct.std::atomic.315" }>
%"struct.std::atomic.426" = type { %"struct.std::__atomic_base.427" }
%"struct.std::__atomic_base.427" = type { ptr }
%"struct.std::atomic.428" = type { %"struct.std::__atomic_base.429" }
%"struct.std::__atomic_base.429" = type { ptr }
%"class.tbb::detail::d1::enumerable_thread_specific.432" = type { %"class.tbb::detail::d1::ets_base", ptr, %"class.tbb::detail::d1::concurrent_vector.433" }
%"class.tbb::detail::d1::concurrent_vector.433" = type { %"class.tbb::detail::d1::segment_table.base.439", [7 x i8] }
%"class.tbb::detail::d1::segment_table.base.439" = type <{ ptr, [8 x i8], %"struct.std::atomic.435", [3 x %"struct.std::atomic.437"], %"struct.std::atomic.225", %"struct.std::atomic.225", %"struct.std::atomic.315" }>
%"struct.std::atomic.435" = type { %"struct.std::__atomic_base.436" }
%"struct.std::__atomic_base.436" = type { ptr }
%"struct.std::atomic.437" = type { %"struct.std::__atomic_base.438" }
%"struct.std::__atomic_base.438" = type { ptr }
%"class.tbb::detail::d1::enumerable_thread_specific.441" = type { %"class.tbb::detail::d1::ets_base.base", ptr, %"class.tbb::detail::d1::concurrent_vector.443" }
%"class.tbb::detail::d1::ets_base.base" = type <{ %"class.tbb::detail::d1::ets_base", i32 }>
%"class.tbb::detail::d1::concurrent_vector.443" = type { %"class.tbb::detail::d1::segment_table.base.449", [7 x i8] }
%"class.tbb::detail::d1::segment_table.base.449" = type <{ ptr, [8 x i8], %"struct.std::atomic.445", [3 x %"struct.std::atomic.447"], %"struct.std::atomic.225", %"struct.std::atomic.225", %"struct.std::atomic.315" }>
%"struct.std::atomic.445" = type { %"struct.std::__atomic_base.446" }
%"struct.std::__atomic_base.446" = type { ptr }
%"struct.std::atomic.447" = type { %"struct.std::__atomic_base.448" }
%"struct.std::__atomic_base.448" = type { ptr }

@_ZSt4cout = external global %"class.std::basic_ostream", align 8
@.str.23 = private unnamed_addr constant [3 x i8] c"OK\00", align 1
@_ZSt4cerr = external global %"class.std::basic_ostream", align 8
@.str.24 = private unnamed_addr constant [7 x i8] c"FAILED\00", align 1

; Function Attrs: mustprogress nounwind uwtable
define linkonce_odr dso_local noundef i32 @_ZStanSt12memory_orderSt23__memory_order_modifier(i32 noundef %0, i32 noundef %1) #5 comdat {
  %3 = alloca i32, align 4
  %4 = alloca i32, align 4
  store i32 %0, ptr %3, align 4
  store i32 %1, ptr %4, align 4
  %5 = load i32, ptr %3, align 4
  %6 = load i32, ptr %4, align 4
  %7 = and i32 %5, %6
  ret i32 %7
}

; Function Attrs: mustprogress nounwind uwtable
define linkonce_odr dso_local noundef i64 @_ZNKSt13__atomic_baseImEcvmEv(ptr noundef nonnull align 8 dereferenceable(8) %0) #5 comdat align 2 {
  %2 = alloca ptr, align 8
  %3 = alloca i32, align 4
  %4 = alloca i32, align 4
  %5 = alloca i64, align 8
  %6 = alloca ptr, align 8
  store ptr %0, ptr %6, align 8
  %7 = load ptr, ptr %6, align 8
  store ptr %7, ptr %2, align 8
  store i32 5, ptr %3, align 4
  %8 = load ptr, ptr %2, align 8
  %9 = load i32, ptr %3, align 4
  %10 = call noundef i32 @_ZStanSt12memory_orderSt23__memory_order_modifier(i32 noundef %9, i32 noundef 65535)
  store i32 %10, ptr %4, align 4
  %11 = load i32, ptr %3, align 4
  switch i32 %11, label %12 [
    i32 1, label %14
    i32 2, label %14
    i32 5, label %16
  ]

12:                                               ; preds = %1
  %13 = load atomic i64, ptr %8 monotonic, align 8
  store i64 %13, ptr %5, align 8
  br label %18

14:                                               ; preds = %1, %1
  %15 = load atomic i64, ptr %8 acquire, align 8
  store i64 %15, ptr %5, align 8
  br label %18

16:                                               ; preds = %1
  %17 = load atomic i64, ptr %8 seq_cst, align 8
  store i64 %17, ptr %5, align 8
  br label %18

18:                                               ; preds = %16, %14, %12
  %19 = load i64, ptr %5, align 8
  ret i64 %19
}

; Function Attrs: mustprogress uwtable
define linkonce_odr dso_local noundef nonnull align 8 dereferenceable(481) ptr @_ZN32pxrInternal_v0_24__pxrReserved__15TfDiagnosticMgr11GetInstanceEv() #4 comdat align 2 {
  %1 = call noundef nonnull align 8 dereferenceable(481) ptr @_ZN32pxrInternal_v0_24__pxrReserved__11TfSingletonINS_15TfDiagnosticMgrEE11GetInstanceEv()
  ret ptr %1
}

; Function Attrs: mustprogress uwtable
define linkonce_odr dso_local noundef zeroext i1 @_ZNK32pxrInternal_v0_24__pxrReserved__11TfErrorMark7IsCleanEv(ptr noundef nonnull align 8 dereferenceable(8) %0) #4 comdat align 2 {
  %2 = alloca ptr, align 8
  %3 = alloca ptr, align 8
  store ptr %0, ptr %2, align 8
  %4 = load ptr, ptr %2, align 8
  %5 = call noundef nonnull align 8 dereferenceable(481) ptr @_ZN32pxrInternal_v0_24__pxrReserved__15TfDiagnosticMgr11GetInstanceEv()
  store ptr %5, ptr %3, align 8
  %6 = getelementptr inbounds nuw %"class.pxrInternal_v0_24__pxrReserved__::TfErrorMark", ptr %4, i32 0, i32 0
  %7 = load i64, ptr %6, align 8
  %8 = load ptr, ptr %3, align 8
  %9 = getelementptr inbounds nuw %"class.pxrInternal_v0_24__pxrReserved__::TfDiagnosticMgr", ptr %8, i32 0, i32 5
  %10 = call noundef i64 @_ZNKSt13__atomic_baseImEcvmEv(ptr noundef nonnull align 8 dereferenceable(8) %9) #3
  %11 = icmp uge i64 %7, %10
  br i1 %11, label %15, label %12

12:                                               ; preds = %1
  %13 = load ptr, ptr %3, align 8
  %14 = call noundef zeroext i1 @_ZNK32pxrInternal_v0_24__pxrReserved__11TfErrorMark12_IsCleanImplERNS_15TfDiagnosticMgrE(ptr noundef nonnull align 8 dereferenceable(8) %4, ptr noundef nonnull align 8 dereferenceable(481) %13)
  br label %15

15:                                               ; preds = %12, %1
  %16 = phi i1 [ true, %1 ], [ %14, %12 ]
  ret i1 %16
}

; Function Attrs: mustprogress norecurse uwtable
define dso_local noundef i32 @main(i32 noundef %0, ptr noundef %1) #7 personality ptr @__gxx_personality_v0 {
  %3 = alloca i32, align 4
  %4 = alloca i32, align 4
  %5 = alloca ptr, align 8
  %6 = alloca %"class.pxrInternal_v0_24__pxrReserved__::TfErrorMark", align 8
  %7 = alloca ptr, align 8
  %8 = alloca i32, align 4
  %9 = alloca i32, align 4
  store i32 0, ptr %3, align 4
  store i32 %0, ptr %4, align 4
  store ptr %1, ptr %5, align 8
  call void @_ZN32pxrInternal_v0_24__pxrReserved__11TfErrorMarkC1Ev(ptr noundef nonnull align 8 dereferenceable(8) %6)
  invoke void @_Z7RunTestv()
          to label %10 unwind label %18

10:                                               ; preds = %2
  %11 = invoke noundef zeroext i1 @_ZNK32pxrInternal_v0_24__pxrReserved__11TfErrorMark7IsCleanEv(ptr noundef nonnull align 8 dereferenceable(8) %6)
          to label %12 unwind label %18

12:                                               ; preds = %10
  br i1 %11, label %13, label %22

13:                                               ; preds = %12
  %14 = invoke noundef nonnull align 8 dereferenceable(8) ptr @_ZStlsISt11char_traitsIcEERSt13basic_ostreamIcT_ES5_PKc(ptr noundef nonnull align 8 dereferenceable(8) @_ZSt4cout, ptr noundef @.str.23)
          to label %15 unwind label %18

15:                                               ; preds = %13
  %16 = invoke noundef nonnull align 8 dereferenceable(8) ptr @_ZNSolsEPFRSoS_E(ptr noundef nonnull align 8 dereferenceable(8) %14, ptr noundef @_ZSt4endlIcSt11char_traitsIcEERSt13basic_ostreamIT_T0_ES6_)
          to label %17 unwind label %18

17:                                               ; preds = %15
  store i32 0, ptr %3, align 4
  store i32 1, ptr %9, align 4
  br label %28

18:                                               ; preds = %26, %24, %22, %15, %13, %10, %2
  %19 = landingpad { ptr, i32 }
          cleanup
  %20 = extractvalue { ptr, i32 } %19, 0
  store ptr %20, ptr %7, align 8
  %21 = extractvalue { ptr, i32 } %19, 1
  store i32 %21, ptr %8, align 4
  call void @_ZN32pxrInternal_v0_24__pxrReserved__11TfErrorMarkD1Ev(ptr noundef nonnull align 8 dereferenceable(8) %6) #3
  br label %30

22:                                               ; preds = %12
  %23 = invoke noundef nonnull align 8 dereferenceable(8) ptr @_ZStlsISt11char_traitsIcEERSt13basic_ostreamIcT_ES5_PKc(ptr noundef nonnull align 8 dereferenceable(8) @_ZSt4cerr, ptr noundef @.str.24)
          to label %24 unwind label %18

24:                                               ; preds = %22
  %25 = invoke noundef nonnull align 8 dereferenceable(8) ptr @_ZNSolsEPFRSoS_E(ptr noundef nonnull align 8 dereferenceable(8) %23, ptr noundef @_ZSt4endlIcSt11char_traitsIcEERSt13basic_ostreamIT_T0_ES6_)
          to label %26 unwind label %18

26:                                               ; preds = %24
  invoke void @_ZN32pxrInternal_v0_24__pxrReserved__24TfReportActiveErrorMarksEv()
          to label %27 unwind label %18

27:                                               ; preds = %26
  store i32 1, ptr %3, align 4
  store i32 1, ptr %9, align 4
  br label %28

28:                                               ; preds = %27, %17
  call void @_ZN32pxrInternal_v0_24__pxrReserved__11TfErrorMarkD1Ev(ptr noundef nonnull align 8 dereferenceable(8) %6) #3
  %29 = load i32, ptr %3, align 4
  ret i32 %29

30:                                               ; preds = %18
  %31 = load ptr, ptr %7, align 8
  %32 = load i32, ptr %8, align 4
  %33 = insertvalue { ptr, i32 } poison, ptr %31, 0
  %34 = insertvalue { ptr, i32 } %33, i32 %32, 1
  resume { ptr, i32 } %34
}